; Function Attrs: nounwind uwtable
define dso_local noundef ptr @list_delete(ptr noundef %0, ptr noundef %1) local_unnamed_addr #0 {
  %.not = icmp eq ptr %0, null
  br i1 %.not, label %list_delete_cell.exit, label %.lr.ph

.lr.ph:                                           ; preds = %2
  %3 = getelementptr inbounds nuw i8, ptr %0, i64 4
  %4 = getelementptr inbounds nuw i8, ptr %0, i64 16
  %5 = load i32, ptr %3, align 4
  %6 = icmp sgt i32 %5, 0
  br i1 %6, label %.lr.ph29, label %list_delete_cell.exit

7:                                                ; preds = %.lr.ph29
  %indvars.iv.next = add nuw nsw i64 %indvars.iv, 1
  %8 = sext i32 %14 to i64
  %9 = icmp slt i64 %indvars.iv.next, %8
  br i1 %9, label %.lr.ph29, label %list_delete_cell.exit

.lr.ph29:                                         ; preds = %.lr.ph, %7
  %indvars.iv = phi i64 [ %indvars.iv.next, %7 ], [ 0, %.lr.ph ]
  %10 = load ptr, ptr %4, align 8
  %11 = getelementptr inbounds nuw %union.ListCell, ptr %10, i64 %indvars.iv
  %12 = load ptr, ptr %11, align 8
  %13 = tail call zeroext i1 @equal(ptr noundef %12, ptr noundef %1) #9
  %14 = load i32, ptr %3, align 4
  br i1 %13, label %.split, label %7

.split:                                           ; preds = %.lr.ph29
  %15 = load ptr, ptr %4, align 8
  %16 = icmp eq i32 %14, 1
  br i1 %16, label %17, label %20

17:                                               ; preds = %.split
  %18 = getelementptr inbounds nuw i8, ptr %0, i64 24
  %.not.i.i.i.i = icmp eq ptr %15, %18
  br i1 %.not.i.i.i.i, label %list_free.exit.i.i, label %19

19:                                               ; preds = %17
  tail call void @pfree(ptr noundef %15) #9
  br label %list_free.exit.i.i

list_free.exit.i.i:                               ; preds = %19, %17
  tail call void @pfree(ptr noundef nonnull %0) #9
  br label %list_delete_cell.exit

20:                                               ; preds = %.split
  %21 = getelementptr inbounds nuw %union.ListCell, ptr %10, i64 %indvars.iv
  %22 = ptrtoint ptr %21 to i64
  %23 = ptrtoint ptr %15 to i64
  %24 = sub i64 %22, %23
  %25 = lshr exact i64 %24, 3
  %26 = trunc i64 %25 to i32
  %sext.i = shl i64 %24, 29
  %27 = ashr i64 %sext.i, 32
  %28 = getelementptr inbounds %union.ListCell, ptr %15, i64 %27
  %sext3.i = add i64 %sext.i, 4294967296
  %29 = ashr i64 %sext3.i, 32
  %30 = getelementptr inbounds %union.ListCell, ptr %15, i64 %29
  %31 = xor i32 %26, -1
  %32 = add i32 %14, %31
  %33 = sext i32 %32 to i64
  %34 = shl nsw i64 %33, 3
  tail call void @llvm.memmove.p0.p0.i64(ptr align 8 %28, ptr align 8 %30, i64 %34, i1 false)
  %35 = load i32, ptr %3, align 4
  %36 = add i32 %35, -1
  store i32 %36, ptr %3, align 4
  br label %list_delete_cell.exit

list_delete_cell.exit:                            ; preds = %7, %2, %.lr.ph, %20, %list_free.exit.i.i
  %37 = phi ptr [ %0, %20 ], [ null, %list_free.exit.i.i ], [ null, %2 ], [ %0, %.lr.ph ], [ %0, %7 ]
  ret ptr %37
}